; ModuleID = '17/1228.c'
source_filename = "17/1228.c"
target datalayout = "e-m:e-p270:32:32-p271:32:32-p272:64:64-i64:64-f80:128-n8:16:32:64-S128"
target triple = "x86_64-pc-linux-gnu"

@.str = private unnamed_addr constant [3 x i8] c"%d\00", align 1
@.str.1 = private unnamed_addr constant [3 x i8] c"%s\00", align 1
@.str.2 = private unnamed_addr constant [4 x i8] c"%s\0A\00", align 1

; Function Attrs: noinline nounwind uwtable
define dso_local i32 @main() #0 {
  %1 = alloca i32, align 4
  %2 = alloca i32, align 4
  %3 = alloca i32, align 4
  %4 = alloca i32, align 4
  %5 = alloca i32, align 4
  %6 = alloca i32, align 4
  %7 = alloca i32, align 4
  %8 = alloca i32, align 4
  %9 = alloca [1000 x i8], align 16
  store i32 0, i32* %1, align 4
  %10 = bitcast [1000 x i8]* %9 to i8*
  call void @llvm.memset.p0i8.i64(i8* align 16 %10, i8 0, i64 1000, i1 false)
  %11 = call i32 (i8*, ...) @__isoc99_scanf(i8* getelementptr inbounds ([3 x i8], [3 x i8]* @.str, i64 0, i64 0), i32* %3)
  store i32 0, i32* %8, align 4
  br label %12

12:                                               ; preds = %125, %0
  %13 = load i32, i32* %8, align 4
  %14 = load i32, i32* %3, align 4
  %15 = icmp slt i32 %13, %14
  br i1 %15, label %16, label %128

16:                                               ; preds = %12
  %17 = getelementptr inbounds [1000 x i8], [1000 x i8]* %9, i64 0, i64 0
  %18 = call i32 (i8*, ...) @__isoc99_scanf(i8* getelementptr inbounds ([3 x i8], [3 x i8]* @.str.1, i64 0, i64 0), i8* %17)
  %19 = getelementptr inbounds [1000 x i8], [1000 x i8]* %9, i64 0, i64 0
  %20 = call i32 (i8*, ...) @printf(i8* getelementptr inbounds ([4 x i8], [4 x i8]* @.str.2, i64 0, i64 0), i8* %19)
  %21 = getelementptr inbounds [1000 x i8], [1000 x i8]* %9, i64 0, i64 0
  %22 = call i64 @strlen(i8* %21) #4
  %23 = trunc i64 %22 to i32
  store i32 %23, i32* %4, align 4
  store i32 0, i32* %7, align 4
  br label %24

24:                                               ; preds = %47, %16
  %25 = load i32, i32* %7, align 4
  %26 = load i32, i32* %4, align 4
  %27 = icmp slt i32 %25, %26
  br i1 %27, label %28, label %50

28:                                               ; preds = %24
  %29 = load i32, i32* %7, align 4
  %30 = sext i32 %29 to i64
  %31 = getelementptr inbounds [1000 x i8], [1000 x i8]* %9, i64 0, i64 %30
  %32 = load i8, i8* %31, align 1
  %33 = sext i8 %32 to i32
  %34 = icmp ne i32 %33, 40
  br i1 %34, label %35, label %46

35:                                               ; preds = %28
  %36 = load i32, i32* %7, align 4
  %37 = sext i32 %36 to i64
  %38 = getelementptr inbounds [1000 x i8], [1000 x i8]* %9, i64 0, i64 %37
  %39 = load i8, i8* %38, align 1
  %40 = sext i8 %39 to i32
  %41 = icmp ne i32 %40, 41
  br i1 %41, label %42, label %46

42:                                               ; preds = %35
  %43 = load i32, i32* %7, align 4
  %44 = sext i32 %43 to i64
  %45 = getelementptr inbounds [1000 x i8], [1000 x i8]* %9, i64 0, i64 %44
  store i8 32, i8* %45, align 1
  br label %46

46:                                               ; preds = %42, %35, %28
  br label %47

47:                                               ; preds = %46
  %48 = load i32, i32* %7, align 4
  %49 = add nsw i32 %48, 1
  store i32 %49, i32* %7, align 4
  br label %24

50:                                               ; preds = %24
  store i32 0, i32* %2, align 4
  br label %51

51:                                               ; preds = %87, %50
  %52 = load i32, i32* %2, align 4
  %53 = load i32, i32* %4, align 4
  %54 = icmp slt i32 %52, %53
  br i1 %54, label %55, label %90

55:                                               ; preds = %51
  %56 = load i32, i32* %2, align 4
  %57 = sext i32 %56 to i64
  %58 = getelementptr inbounds [1000 x i8], [1000 x i8]* %9, i64 0, i64 %57
  %59 = load i8, i8* %58, align 1
  %60 = sext i8 %59 to i32
  %61 = icmp eq i32 %60, 41
  br i1 %61, label %62, label %86

62:                                               ; preds = %55
  %63 = load i32, i32* %2, align 4
  store i32 %63, i32* %6, align 4
  br label %64

64:                                               ; preds = %82, %62
  %65 = load i32, i32* %6, align 4
  %66 = icmp sge i32 %65, 0
  br i1 %66, label %67, label %85

67:                                               ; preds = %64
  %68 = load i32, i32* %6, align 4
  %69 = sext i32 %68 to i64
  %70 = getelementptr inbounds [1000 x i8], [1000 x i8]* %9, i64 0, i64 %69
  %71 = load i8, i8* %70, align 1
  %72 = sext i8 %71 to i32
  %73 = icmp eq i32 %72, 40
  br i1 %73, label %74, label %81

74:                                               ; preds = %67
  %75 = load i32, i32* %2, align 4
  %76 = sext i32 %75 to i64
  %77 = getelementptr inbounds [1000 x i8], [1000 x i8]* %9, i64 0, i64 %76
  store i8 32, i8* %77, align 1
  %78 = load i32, i32* %6, align 4
  %79 = sext i32 %78 to i64
  %80 = getelementptr inbounds [1000 x i8], [1000 x i8]* %9, i64 0, i64 %79
  store i8 32, i8* %80, align 1
  br label %85

81:                                               ; preds = %67
  br label %82

82:                                               ; preds = %81
  %83 = load i32, i32* %6, align 4
  %84 = add nsw i32 %83, -1
  store i32 %84, i32* %6, align 4
  br label %64

85:                                               ; preds = %74, %64
  br label %86

86:                                               ; preds = %85, %55
  br label %87

87:                                               ; preds = %86
  %88 = load i32, i32* %2, align 4
  %89 = add nsw i32 %88, 1
  store i32 %89, i32* %2, align 4
  br label %51

90:                                               ; preds = %51
  store i32 0, i32* %5, align 4
  br label %91

91:                                               ; preds = %119, %90
  %92 = load i32, i32* %5, align 4
  %93 = load i32, i32* %4, align 4
  %94 = icmp slt i32 %92, %93
  br i1 %94, label %95, label %122

95:                                               ; preds = %91
  %96 = load i32, i32* %5, align 4
  %97 = sext i32 %96 to i64
  %98 = getelementptr inbounds [1000 x i8], [1000 x i8]* %9, i64 0, i64 %97
  %99 = load i8, i8* %98, align 1
  %100 = sext i8 %99 to i32
  %101 = icmp eq i32 %100, 40
  br i1 %101, label %102, label %106

102:                                              ; preds = %95
  %103 = load i32, i32* %5, align 4
  %104 = sext i32 %103 to i64
  %105 = getelementptr inbounds [1000 x i8], [1000 x i8]* %9, i64 0, i64 %104
  store i8 36, i8* %105, align 1
  br label %118

106:                                              ; preds = %95
  %107 = load i32, i32* %5, align 4
  %108 = sext i32 %107 to i64
  %109 = getelementptr inbounds [1000 x i8], [1000 x i8]* %9, i64 0, i64 %108
  %110 = load i8, i8* %109, align 1
  %111 = sext i8 %110 to i32
  %112 = icmp eq i32 %111, 41
  br i1 %112, label %113, label %117

113:                                              ; preds = %106
  %114 = load i32, i32* %5, align 4
  %115 = sext i32 %114 to i64
  %116 = getelementptr inbounds [1000 x i8], [1000 x i8]* %9, i64 0, i64 %115
  store i8 63, i8* %116, align 1
  br label %117

117:                                              ; preds = %113, %106
  br label %118

118:                                              ; preds = %117, %102
  br label %119

119:                                              ; preds = %118
  %120 = load i32, i32* %5, align 4
  %121 = add nsw i32 %120, 1
  store i32 %121, i32* %5, align 4
  br label %91

122:                                              ; preds = %91
  %123 = getelementptr inbounds [1000 x i8], [1000 x i8]* %9, i64 0, i64 0
  %124 = call i32 (i8*, ...) @printf(i8* getelementptr inbounds ([4 x i8], [4 x i8]* @.str.2, i64 0, i64 0), i8* %123)
  br label %125

125:                                              ; preds = %122
  %126 = load i32, i32* %8, align 4
  %127 = add nsw i32 %126, 1
  store i32 %127, i32* %8, align 4
  br label %12

128:                                              ; preds = %12
  ret i32 0
}

; Function Attrs: argmemonly nounwind willreturn
declare void @llvm.memset.p0i8.i64(i8* nocapture writeonly, i8, i64, i1 immarg) #1

declare dso_local i32 @__isoc99_scanf(i8*, ...) #2

declare dso_local i32 @printf(i8*, ...) #2

; Function Attrs: nounwind readonly
declare dso_local i64 @strlen(i8*) #3


!llvm.module.flags = !{!0}
!llvm.ident = !{!1}

!0 = !{i32 1, !"wchar_size", i32 4}
!1 = !{!"clang version 10.0.0-4ubuntu1 "}
