; ModuleID = 'source-C-CXX/16/1228.c'
source_filename = "source-C-CXX/16/1228.c"
target datalayout = "e-m:e-p270:32:32-p271:32:32-p272:64:64-i64:64-f80:128-n8:16:32:64-S128"
target triple = "x86_64-pc-linux-gnu"

@.str = private unnamed_addr constant [3 x i8] c"%d\00", align 1
@.str.1 = private unnamed_addr constant [3 x i8] c"%s\00", align 1

; Function Attrs: nofree nounwind sspstrong uwtable
define dso_local i32 @main() local_unnamed_addr #0 {
  %1 = alloca i32, align 4
  %2 = alloca [1000 x i8], align 16
  %3 = bitcast i32* %1 to i8*
  call void @llvm.lifetime.start.p0i8(i64 4, i8* nonnull %3) #6
  %4 = getelementptr inbounds [1000 x i8], [1000 x i8]* %2, i64 0, i64 0
  call void @llvm.lifetime.start.p0i8(i64 1000, i8* nonnull %4) #6
  call void @llvm.memset.p0i8.i64(i8* noundef nonnull align 16 dereferenceable(1000) %4, i8 0, i64 1000, i1 false)
  %5 = call i32 (i8*, ...) @__isoc99_scanf(i8* getelementptr inbounds ([3 x i8], [3 x i8]* @.str, i64 0, i64 0), i32* nonnull %1)
  %6 = load i32, i32* %1, align 4, !tbaa !5
  %7 = icmp sgt i32 %6, 0
  br i1 %7, label %8, label %184

8:                                                ; preds = %0, %179
  %9 = phi i32 [ %181, %179 ], [ 0, %0 ]
  %10 = call i32 (i8*, ...) @__isoc99_scanf(i8* getelementptr inbounds ([3 x i8], [3 x i8]* @.str.1, i64 0, i64 0), i8* nonnull %4)
  %11 = call i32 @puts(i8* nonnull %4)
  %12 = call i64 @strlen(i8* noundef nonnull %4) #7
  %13 = trunc i64 %12 to i32
  %14 = icmp sgt i32 %13, 0
  br i1 %14, label %15, label %179

15:                                               ; preds = %8
  %16 = and i64 %12, 4294967295
  %17 = icmp ult i64 %16, 16
  br i1 %17, label %115, label %18

18:                                               ; preds = %15
  %19 = and i64 %12, 15
  %20 = sub nsw i64 %16, %19
  br label %21

21:                                               ; preds = %110, %18
  %22 = phi i64 [ 0, %18 ], [ %111, %110 ]
  %23 = getelementptr inbounds [1000 x i8], [1000 x i8]* %2, i64 0, i64 %22
  %24 = bitcast i8* %23 to <8 x i8>*
  %25 = load <8 x i8>, <8 x i8>* %24, align 16, !tbaa !9
  %26 = getelementptr inbounds i8, i8* %23, i64 8
  %27 = bitcast i8* %26 to <8 x i8>*
  %28 = load <8 x i8>, <8 x i8>* %27, align 8, !tbaa !9
  %29 = and <8 x i8> %25, <i8 -2, i8 -2, i8 -2, i8 -2, i8 -2, i8 -2, i8 -2, i8 -2>
  %30 = and <8 x i8> %28, <i8 -2, i8 -2, i8 -2, i8 -2, i8 -2, i8 -2, i8 -2, i8 -2>
  %31 = icmp ne <8 x i8> %29, <i8 40, i8 40, i8 40, i8 40, i8 40, i8 40, i8 40, i8 40>
  %32 = icmp ne <8 x i8> %30, <i8 40, i8 40, i8 40, i8 40, i8 40, i8 40, i8 40, i8 40>
  %33 = extractelement <8 x i1> %31, i32 0
  br i1 %33, label %34, label %35

34:                                               ; preds = %21
  store i8 32, i8* %23, align 16, !tbaa !9
  br label %35

35:                                               ; preds = %34, %21
  %36 = extractelement <8 x i1> %31, i32 1
  br i1 %36, label %37, label %40

37:                                               ; preds = %35
  %38 = or i64 %22, 1
  %39 = getelementptr inbounds [1000 x i8], [1000 x i8]* %2, i64 0, i64 %38
  store i8 32, i8* %39, align 1, !tbaa !9
  br label %40

40:                                               ; preds = %37, %35
  %41 = extractelement <8 x i1> %31, i32 2
  br i1 %41, label %42, label %45

42:                                               ; preds = %40
  %43 = or i64 %22, 2
  %44 = getelementptr inbounds [1000 x i8], [1000 x i8]* %2, i64 0, i64 %43
  store i8 32, i8* %44, align 2, !tbaa !9
  br label %45

45:                                               ; preds = %42, %40
  %46 = extractelement <8 x i1> %31, i32 3
  br i1 %46, label %47, label %50

47:                                               ; preds = %45
  %48 = or i64 %22, 3
  %49 = getelementptr inbounds [1000 x i8], [1000 x i8]* %2, i64 0, i64 %48
  store i8 32, i8* %49, align 1, !tbaa !9
  br label %50

50:                                               ; preds = %47, %45
  %51 = extractelement <8 x i1> %31, i32 4
  br i1 %51, label %52, label %55

52:                                               ; preds = %50
  %53 = or i64 %22, 4
  %54 = getelementptr inbounds [1000 x i8], [1000 x i8]* %2, i64 0, i64 %53
  store i8 32, i8* %54, align 4, !tbaa !9
  br label %55

55:                                               ; preds = %52, %50
  %56 = extractelement <8 x i1> %31, i32 5
  br i1 %56, label %57, label %60

57:                                               ; preds = %55
  %58 = or i64 %22, 5
  %59 = getelementptr inbounds [1000 x i8], [1000 x i8]* %2, i64 0, i64 %58
  store i8 32, i8* %59, align 1, !tbaa !9
  br label %60

60:                                               ; preds = %57, %55
  %61 = extractelement <8 x i1> %31, i32 6
  br i1 %61, label %62, label %65

62:                                               ; preds = %60
  %63 = or i64 %22, 6
  %64 = getelementptr inbounds [1000 x i8], [1000 x i8]* %2, i64 0, i64 %63
  store i8 32, i8* %64, align 2, !tbaa !9
  br label %65

65:                                               ; preds = %62, %60
  %66 = extractelement <8 x i1> %31, i32 7
  br i1 %66, label %67, label %70

67:                                               ; preds = %65
  %68 = or i64 %22, 7
  %69 = getelementptr inbounds [1000 x i8], [1000 x i8]* %2, i64 0, i64 %68
  store i8 32, i8* %69, align 1, !tbaa !9
  br label %70

70:                                               ; preds = %67, %65
  %71 = extractelement <8 x i1> %32, i32 0
  br i1 %71, label %72, label %75

72:                                               ; preds = %70
  %73 = or i64 %22, 8
  %74 = getelementptr inbounds [1000 x i8], [1000 x i8]* %2, i64 0, i64 %73
  store i8 32, i8* %74, align 8, !tbaa !9
  br label %75

75:                                               ; preds = %72, %70
  %76 = extractelement <8 x i1> %32, i32 1
  br i1 %76, label %77, label %80

77:                                               ; preds = %75
  %78 = or i64 %22, 9
  %79 = getelementptr inbounds [1000 x i8], [1000 x i8]* %2, i64 0, i64 %78
  store i8 32, i8* %79, align 1, !tbaa !9
  br label %80

80:                                               ; preds = %77, %75
  %81 = extractelement <8 x i1> %32, i32 2
  br i1 %81, label %82, label %85

82:                                               ; preds = %80
  %83 = or i64 %22, 10
  %84 = getelementptr inbounds [1000 x i8], [1000 x i8]* %2, i64 0, i64 %83
  store i8 32, i8* %84, align 2, !tbaa !9
  br label %85

85:                                               ; preds = %82, %80
  %86 = extractelement <8 x i1> %32, i32 3
  br i1 %86, label %87, label %90

87:                                               ; preds = %85
  %88 = or i64 %22, 11
  %89 = getelementptr inbounds [1000 x i8], [1000 x i8]* %2, i64 0, i64 %88
  store i8 32, i8* %89, align 1, !tbaa !9
  br label %90

90:                                               ; preds = %87, %85
  %91 = extractelement <8 x i1> %32, i32 4
  br i1 %91, label %92, label %95

92:                                               ; preds = %90
  %93 = or i64 %22, 12
  %94 = getelementptr inbounds [1000 x i8], [1000 x i8]* %2, i64 0, i64 %93
  store i8 32, i8* %94, align 4, !tbaa !9
  br label %95

95:                                               ; preds = %92, %90
  %96 = extractelement <8 x i1> %32, i32 5
  br i1 %96, label %97, label %100

97:                                               ; preds = %95
  %98 = or i64 %22, 13
  %99 = getelementptr inbounds [1000 x i8], [1000 x i8]* %2, i64 0, i64 %98
  store i8 32, i8* %99, align 1, !tbaa !9
  br label %100

100:                                              ; preds = %97, %95
  %101 = extractelement <8 x i1> %32, i32 6
  br i1 %101, label %102, label %105

102:                                              ; preds = %100
  %103 = or i64 %22, 14
  %104 = getelementptr inbounds [1000 x i8], [1000 x i8]* %2, i64 0, i64 %103
  store i8 32, i8* %104, align 2, !tbaa !9
  br label %105

105:                                              ; preds = %102, %100
  %106 = extractelement <8 x i1> %32, i32 7
  br i1 %106, label %107, label %110

107:                                              ; preds = %105
  %108 = or i64 %22, 15
  %109 = getelementptr inbounds [1000 x i8], [1000 x i8]* %2, i64 0, i64 %108
  store i8 32, i8* %109, align 1, !tbaa !9
  br label %110

110:                                              ; preds = %107, %105
  %111 = add nuw i64 %22, 16
  %112 = icmp eq i64 %111, %20
  br i1 %112, label %113, label %21, !llvm.loop !10

113:                                              ; preds = %110
  %114 = icmp eq i64 %19, 0
  br i1 %114, label %117, label %115

115:                                              ; preds = %15, %113
  %116 = phi i64 [ 0, %15 ], [ %20, %113 ]
  br label %120

117:                                              ; preds = %127, %113
  br i1 %14, label %118, label %179

118:                                              ; preds = %117
  %119 = and i64 %12, 4294967295
  br label %136

120:                                              ; preds = %115, %127
  %121 = phi i64 [ %128, %127 ], [ %116, %115 ]
  %122 = getelementptr inbounds [1000 x i8], [1000 x i8]* %2, i64 0, i64 %121
  %123 = load i8, i8* %122, align 1, !tbaa !9
  %124 = and i8 %123, -2
  %125 = icmp eq i8 %124, 40
  br i1 %125, label %127, label %126

126:                                              ; preds = %120
  store i8 32, i8* %122, align 1, !tbaa !9
  br label %127

127:                                              ; preds = %120, %126
  %128 = add nuw nsw i64 %121, 1
  %129 = icmp eq i64 %128, %16
  br i1 %129, label %117, label %120, !llvm.loop !13

130:                                              ; preds = %155
  br i1 %14, label %131, label %179

131:                                              ; preds = %130
  %132 = and i64 %12, 1
  %133 = icmp eq i64 %119, 1
  br i1 %133, label %170, label %134

134:                                              ; preds = %131
  %135 = sub nsw i64 %119, %132
  br label %158

136:                                              ; preds = %118, %155
  %137 = phi i64 [ 0, %118 ], [ %156, %155 ]
  %138 = getelementptr inbounds [1000 x i8], [1000 x i8]* %2, i64 0, i64 %137
  %139 = load i8, i8* %138, align 1, !tbaa !9
  %140 = icmp eq i8 %139, 41
  br i1 %140, label %141, label %155

141:                                              ; preds = %136
  %142 = trunc i64 %137 to i32
  br label %143

143:                                              ; preds = %141, %152
  %144 = phi i32 [ %153, %152 ], [ %142, %141 ]
  %145 = zext i32 %144 to i64
  %146 = getelementptr inbounds [1000 x i8], [1000 x i8]* %2, i64 0, i64 %145
  %147 = load i8, i8* %146, align 1, !tbaa !9
  %148 = icmp eq i8 %147, 40
  br i1 %148, label %149, label %152

149:                                              ; preds = %143
  %150 = zext i32 %144 to i64
  %151 = getelementptr inbounds [1000 x i8], [1000 x i8]* %2, i64 0, i64 %150
  store i8 32, i8* %138, align 1, !tbaa !9
  store i8 32, i8* %151, align 1, !tbaa !9
  br label %155

152:                                              ; preds = %143
  %153 = add nsw i32 %144, -1
  %154 = icmp sgt i32 %144, 0
  br i1 %154, label %143, label %155, !llvm.loop !15

155:                                              ; preds = %152, %136, %149
  %156 = add nuw nsw i64 %137, 1
  %157 = icmp eq i64 %156, %119
  br i1 %157, label %130, label %136, !llvm.loop !16

158:                                              ; preds = %188, %134
  %159 = phi i64 [ 0, %134 ], [ %189, %188 ]
  %160 = phi i64 [ %135, %134 ], [ %190, %188 ]
  %161 = getelementptr inbounds [1000 x i8], [1000 x i8]* %2, i64 0, i64 %159
  %162 = load i8, i8* %161, align 2, !tbaa !9
  switch i8 %162, label %166 [
    i8 40, label %164
    i8 41, label %163
  ]

163:                                              ; preds = %158
  br label %164

164:                                              ; preds = %158, %163
  %165 = phi i8 [ 63, %163 ], [ 36, %158 ]
  store i8 %165, i8* %161, align 2, !tbaa !9
  br label %166

166:                                              ; preds = %164, %158
  %167 = or i64 %159, 1
  %168 = getelementptr inbounds [1000 x i8], [1000 x i8]* %2, i64 0, i64 %167
  %169 = load i8, i8* %168, align 1, !tbaa !9
  switch i8 %169, label %188 [
    i8 40, label %186
    i8 41, label %185
  ]

170:                                              ; preds = %188, %131
  %171 = phi i64 [ 0, %131 ], [ %189, %188 ]
  %172 = icmp eq i64 %132, 0
  br i1 %172, label %179, label %173

173:                                              ; preds = %170
  %174 = getelementptr inbounds [1000 x i8], [1000 x i8]* %2, i64 0, i64 %171
  %175 = load i8, i8* %174, align 1, !tbaa !9
  switch i8 %175, label %179 [
    i8 40, label %177
    i8 41, label %176
  ]

176:                                              ; preds = %173
  br label %177

177:                                              ; preds = %176, %173
  %178 = phi i8 [ 63, %176 ], [ 36, %173 ]
  store i8 %178, i8* %174, align 1, !tbaa !9
  br label %179

179:                                              ; preds = %170, %173, %177, %8, %117, %130
  %180 = call i32 @puts(i8* nonnull %4)
  %181 = add nuw nsw i32 %9, 1
  %182 = load i32, i32* %1, align 4, !tbaa !5
  %183 = icmp slt i32 %181, %182
  br i1 %183, label %8, label %184, !llvm.loop !17

184:                                              ; preds = %179, %0
  call void @llvm.lifetime.end.p0i8(i64 1000, i8* nonnull %4) #6
  call void @llvm.lifetime.end.p0i8(i64 4, i8* nonnull %3) #6
  ret i32 0

185:                                              ; preds = %166
  br label %186

186:                                              ; preds = %185, %166
  %187 = phi i8 [ 63, %185 ], [ 36, %166 ]
  store i8 %187, i8* %168, align 1, !tbaa !9
  br label %188

188:                                              ; preds = %186, %166
  %189 = add nuw nsw i64 %159, 2
  %190 = add i64 %160, -2
  %191 = icmp eq i64 %190, 0
  br i1 %191, label %170, label %158, !llvm.loop !18
}

; Function Attrs: argmemonly mustprogress nofree nosync nounwind willreturn
declare void @llvm.lifetime.start.p0i8(i64 immarg, i8* nocapture) #1

; Function Attrs: argmemonly mustprogress nofree nounwind willreturn writeonly
declare void @llvm.memset.p0i8.i64(i8* nocapture writeonly, i8, i64, i1 immarg) #2

; Function Attrs: nofree nounwind
declare noundef i32 @__isoc99_scanf(i8* nocapture noundef readonly, ...) local_unnamed_addr #3

; Function Attrs: argmemonly mustprogress nofree nounwind readonly willreturn
declare i64 @strlen(i8* nocapture) local_unnamed_addr #4

; Function Attrs: argmemonly mustprogress nofree nosync nounwind willreturn
declare void @llvm.lifetime.end.p0i8(i64 immarg, i8* nocapture) #1

; Function Attrs: nofree nounwind
declare noundef i32 @puts(i8* nocapture noundef readonly) local_unnamed_addr #5


!llvm.module.flags = !{!0, !1, !2, !3}
!llvm.ident = !{!4}

!0 = !{i32 1, !"wchar_size", i32 4}
!1 = !{i32 7, !"PIC Level", i32 2}
!2 = !{i32 7, !"PIE Level", i32 2}
!3 = !{i32 7, !"uwtable", i32 1}
!4 = !{!"clang version 13.0.0"}
!5 = !{!6, !6, i64 0}
!6 = !{!"int", !7, i64 0}
!7 = !{!"omnipotent char", !8, i64 0}
!8 = !{!"Simple C/C++ TBAA"}
!9 = !{!7, !7, i64 0}
!10 = distinct !{!10, !11, !12}
!11 = !{!"llvm.loop.mustprogress"}
!12 = !{!"llvm.loop.isvectorized", i32 1}
!13 = distinct !{!13, !11, !14, !12}
!14 = !{!"llvm.loop.unroll.runtime.disable"}
!15 = distinct !{!15, !11}
!16 = distinct !{!16, !11}
!17 = distinct !{!17, !11}
!18 = distinct !{!18, !11}
